; Function Attrs: mustprogress nofree norecurse nosync nounwind willreturn memory(read, inaccessiblemem: none) uwtable
define dso_local { double, double } @_ZNK5Model2uvEii(ptr noundef nonnull readonly align 8 captures(none) dereferenceable(264) %0, i32 noundef %1, i32 noundef %2) local_unnamed_addr #18 align 2 {
  %4 = getelementptr inbounds nuw i8, ptr %0, i64 48
  %5 = getelementptr inbounds nuw i8, ptr %0, i64 120
  %6 = mul nsw i32 %1, 3
  %7 = add nsw i32 %6, %2
  %8 = sext i32 %7 to i64
  %9 = load ptr, ptr %5, align 8, !tbaa !87
  %10 = getelementptr inbounds nuw i32, ptr %9, i64 %8
  %11 = load i32, ptr %10, align 4, !tbaa !43
  %12 = sext i32 %11 to i64
  %13 = load ptr, ptr %4, align 8, !tbaa !77
  %14 = getelementptr inbounds nuw %struct.vec.19, ptr %13, i64 %12
  %.sroa.0.0.copyload = load double, ptr %14, align 8, !tbaa !49
  %.sroa.2.0..sroa_idx = getelementptr inbounds nuw i8, ptr %14, i64 8
  %.sroa.2.0.copyload = load double, ptr %.sroa.2.0..sroa_idx, align 8, !tbaa !49
  %.fca.0.insert = insertvalue { double, double } poison, double %.sroa.0.0.copyload, 0
  %.fca.1.insert = insertvalue { double, double } %.fca.0.insert, double %.sroa.2.0.copyload, 1
  ret { double, double } %.fca.1.insert
}